target datalayout = "e-m:e-p270:32:32-p271:32:32-p272:64:64-i64:64-i128:128-f80:128-n8:16:32:64-S128"
target triple = "x86_64-pc-linux-gnu"

%"class.icu_77::number::impl::DecimalQuantity" = type <{ %"class.icu_77::IFixedDecimal", i8, [3 x i8], i32, i32, i8, i8, [2 x i8], double, i32, i32, i32, i32, %union.anon, i8, i8, [6 x i8] }>
%"class.icu_77::IFixedDecimal" = type { ptr }
%union.anon = type { %struct.anon }
%struct.anon = type { ptr, i32 }
%"class.icu_77::number::impl::DecNum" = type { %"class.icu_77::MaybeStackHeaderAndArray", %struct.decContext, [4 x i8] }
%"class.icu_77::MaybeStackHeaderAndArray" = type <{ ptr, i32, i8, [3 x i8], %struct.decNumber, [34 x i8], [2 x i8] }>
%struct.decNumber = type { i32, i32, i8, [1 x i8] }
%struct.decContext = type { i32, i32, i32, i32, i32, i32, i8 }

; Function Attrs: mustprogress nounwind uwtable
define linkonce_odr noundef ptr @_ZNK6icu_7724MaybeStackHeaderAndArrayI9decNumbercLi34EE8getAliasEv(ptr noundef nonnull align 8 dereferenceable(62) %0) #0 comdat align 2 {
  %2 = alloca ptr, align 8
  store ptr %0, ptr %2, align 8, !tbaa !142
  %3 = load ptr, ptr %2, align 8
  %4 = getelementptr inbounds nuw %"class.icu_77::MaybeStackHeaderAndArray", ptr %3, i32 0, i32 0
  %5 = load ptr, ptr %4, align 8, !tbaa !146
  ret ptr %5
}

; Function Attrs: mustprogress uwtable
define void @_ZN6icu_776number4impl15DecimalQuantity14ensureCapacityEi(ptr noundef nonnull align 8 dereferenceable(66) %0, i32 noundef %1) #1 align 2 {
  %3 = alloca ptr, align 8
  %4 = alloca i32, align 4
  %5 = alloca i32, align 4
  %6 = alloca ptr, align 8
  store ptr %0, ptr %3, align 8, !tbaa !25
  store i32 %1, ptr %4, align 4, !tbaa !14
  %7 = load ptr, ptr %3, align 8
  %8 = load i32, ptr %4, align 4, !tbaa !14
  %9 = icmp eq i32 %8, 0
  br i1 %9, label %10, label %11

10:                                               ; preds = %2
  br label %83

11:                                               ; preds = %2
  call void @llvm.lifetime.start.p0(i64 4, ptr %5) #14
  %12 = getelementptr inbounds nuw %"class.icu_77::number::impl::DecimalQuantity", ptr %7, i32 0, i32 14
  %13 = load i8, ptr %12, align 8, !tbaa !37, !range !40, !noundef !41
  %14 = trunc i8 %13 to i1
  br i1 %14, label %15, label %19

15:                                               ; preds = %11
  %16 = getelementptr inbounds nuw %"class.icu_77::number::impl::DecimalQuantity", ptr %7, i32 0, i32 13
  %17 = getelementptr inbounds nuw %struct.anon, ptr %16, i32 0, i32 1
  %18 = load i32, ptr %17, align 8, !tbaa !42
  br label %20

19:                                               ; preds = %11
  br label %20

20:                                               ; preds = %19, %15
  %21 = phi i32 [ %18, %15 ], [ 0, %19 ]
  store i32 %21, ptr %5, align 4, !tbaa !14
  %22 = getelementptr inbounds nuw %"class.icu_77::number::impl::DecimalQuantity", ptr %7, i32 0, i32 14
  %23 = load i8, ptr %22, align 8, !tbaa !37, !range !40, !noundef !41
  %24 = trunc i8 %23 to i1
  br i1 %24, label %41, label %25

25:                                               ; preds = %20
  %26 = load i32, ptr %4, align 4, !tbaa !14
  %27 = sext i32 %26 to i64
  %28 = mul i64 %27, 1
  %29 = call noalias ptr @uprv_malloc_77(i64 noundef %28) #15
  %30 = getelementptr inbounds nuw %"class.icu_77::number::impl::DecimalQuantity", ptr %7, i32 0, i32 13
  %31 = getelementptr inbounds nuw %struct.anon, ptr %30, i32 0, i32 0
  store ptr %29, ptr %31, align 8, !tbaa !42
  %32 = load i32, ptr %4, align 4, !tbaa !14
  %33 = getelementptr inbounds nuw %"class.icu_77::number::impl::DecimalQuantity", ptr %7, i32 0, i32 13
  %34 = getelementptr inbounds nuw %struct.anon, ptr %33, i32 0, i32 1
  store i32 %32, ptr %34, align 8, !tbaa !42
  %35 = getelementptr inbounds nuw %"class.icu_77::number::impl::DecimalQuantity", ptr %7, i32 0, i32 13
  %36 = getelementptr inbounds nuw %struct.anon, ptr %35, i32 0, i32 0
  %37 = load ptr, ptr %36, align 8, !tbaa !42
  %38 = load i32, ptr %4, align 4, !tbaa !14
  %39 = sext i32 %38 to i64
  %40 = mul i64 %39, 1
  call void @llvm.memset.p0.i64(ptr align 1 %37, i8 0, i64 %40, i1 false)
  br label %81

41:                                               ; preds = %20
  %42 = load i32, ptr %5, align 4, !tbaa !14
  %43 = load i32, ptr %4, align 4, !tbaa !14
  %44 = icmp slt i32 %42, %43
  br i1 %44, label %45, label %80

45:                                               ; preds = %41
  call void @llvm.lifetime.start.p0(i64 8, ptr %6) #14
  %46 = load i32, ptr %4, align 4, !tbaa !14
  %47 = mul nsw i32 %46, 2
  %48 = sext i32 %47 to i64
  %49 = mul i64 %48, 1
  %50 = call noalias ptr @uprv_malloc_77(i64 noundef %49) #15
  store ptr %50, ptr %6, align 8, !tbaa !17
  br label %51

51:                                               ; preds = %45
  %52 = load ptr, ptr %6, align 8, !tbaa !17
  %53 = getelementptr inbounds nuw %"class.icu_77::number::impl::DecimalQuantity", ptr %7, i32 0, i32 13
  %54 = getelementptr inbounds nuw %struct.anon, ptr %53, i32 0, i32 0
  %55 = load ptr, ptr %54, align 8, !tbaa !42
  %56 = load i32, ptr %5, align 4, !tbaa !14
  %57 = sext i32 %56 to i64
  %58 = mul i64 %57, 1
  call void @llvm.memcpy.p0.p0.i64(ptr align 1 %52, ptr align 1 %55, i64 %58, i1 false)
  br label %59

59:                                               ; preds = %51
  br label %60

60:                                               ; preds = %59
  %61 = load ptr, ptr %6, align 8, !tbaa !17
  %62 = load i32, ptr %5, align 4, !tbaa !14
  %63 = sext i32 %62 to i64
  %64 = getelementptr inbounds i8, ptr %61, i64 %63
  %65 = load i32, ptr %4, align 4, !tbaa !14
  %66 = load i32, ptr %5, align 4, !tbaa !14
  %67 = sub nsw i32 %65, %66
  %68 = sext i32 %67 to i64
  %69 = mul i64 %68, 1
  call void @llvm.memset.p0.i64(ptr align 1 %64, i8 0, i64 %69, i1 false)
  %70 = getelementptr inbounds nuw %"class.icu_77::number::impl::DecimalQuantity", ptr %7, i32 0, i32 13
  %71 = getelementptr inbounds nuw %struct.anon, ptr %70, i32 0, i32 0
  %72 = load ptr, ptr %71, align 8, !tbaa !42
  call void @uprv_free_77(ptr noundef %72)
  %73 = load ptr, ptr %6, align 8, !tbaa !17
  %74 = getelementptr inbounds nuw %"class.icu_77::number::impl::DecimalQuantity", ptr %7, i32 0, i32 13
  %75 = getelementptr inbounds nuw %struct.anon, ptr %74, i32 0, i32 0
  store ptr %73, ptr %75, align 8, !tbaa !42
  %76 = load i32, ptr %4, align 4, !tbaa !14
  %77 = mul nsw i32 %76, 2
  %78 = getelementptr inbounds nuw %"class.icu_77::number::impl::DecimalQuantity", ptr %7, i32 0, i32 13
  %79 = getelementptr inbounds nuw %struct.anon, ptr %78, i32 0, i32 1
  store i32 %77, ptr %79, align 8, !tbaa !42
  call void @llvm.lifetime.end.p0(i64 8, ptr %6) #14
  br label %80

80:                                               ; preds = %60, %41
  br label %81

81:                                               ; preds = %80, %25
  %82 = getelementptr inbounds nuw %"class.icu_77::number::impl::DecimalQuantity", ptr %7, i32 0, i32 14
  store i8 1, ptr %82, align 8, !tbaa !37
  call void @llvm.lifetime.end.p0(i64 4, ptr %5) #14
  br label %83

83:                                               ; preds = %81, %10
  ret void
}

; Function Attrs: inlinehint mustprogress uwtable
define linkonce_odr noundef ptr @_ZNK6icu_776number4impl6DecNum15getRawDecNumberEv(ptr noundef nonnull align 8 dereferenceable(92) %0) #3 comdat align 2 {
  %2 = alloca ptr, align 8
  store ptr %0, ptr %2, align 8, !tbaa !59
  %3 = load ptr, ptr %2, align 8
  %4 = getelementptr inbounds nuw %"class.icu_77::number::impl::DecNum", ptr %3, i32 0, i32 0
  %5 = call noundef ptr @_ZNK6icu_7724MaybeStackHeaderAndArrayI9decNumbercLi34EE8getAliasEv(ptr noundef nonnull align 8 dereferenceable(62) %4)
  ret ptr %5
}

; Function Attrs: mustprogress uwtable
define void @_ZN6icu_776number4impl15DecimalQuantity18readDecNumberToBcdERKNS1_6DecNumE(ptr noundef nonnull align 8 dereferenceable(66) %0, ptr noundef nonnull align 8 dereferenceable(92) %1) #1 align 2 {
  %3 = alloca ptr, align 8
  %4 = alloca ptr, align 8
  %5 = alloca ptr, align 8
  %6 = alloca i32, align 4
  %7 = alloca i64, align 8
  %8 = alloca i32, align 4
  store ptr %0, ptr %3, align 8, !tbaa !25
  store ptr %1, ptr %4, align 8, !tbaa !59
  %9 = load ptr, ptr %3, align 8
  call void @llvm.lifetime.start.p0(i64 8, ptr %5) #14
  %10 = load ptr, ptr %4, align 8, !tbaa !59
  %11 = call noundef ptr @_ZNK6icu_776number4impl6DecNum15getRawDecNumberEv(ptr noundef nonnull align 8 dereferenceable(92) %10)
  store ptr %11, ptr %5, align 8, !tbaa !22
  %12 = load ptr, ptr %5, align 8, !tbaa !22
  %13 = getelementptr inbounds nuw %struct.decNumber, ptr %12, i32 0, i32 0
  %14 = load i32, ptr %13, align 4, !tbaa !71
  %15 = icmp sgt i32 %14, 16
  br i1 %15, label %16, label %44

16:                                               ; preds = %2
  %17 = load ptr, ptr %5, align 8, !tbaa !22
  %18 = getelementptr inbounds nuw %struct.decNumber, ptr %17, i32 0, i32 0
  %19 = load i32, ptr %18, align 4, !tbaa !71
  call void @_ZN6icu_776number4impl15DecimalQuantity14ensureCapacityEi(ptr noundef nonnull align 8 dereferenceable(66) %9, i32 noundef %19)
  call void @llvm.lifetime.start.p0(i64 4, ptr %6) #14
  store i32 0, ptr %6, align 4, !tbaa !14
  br label %20

20:                                               ; preds = %40, %16
  %21 = load i32, ptr %6, align 4, !tbaa !14
  %22 = load ptr, ptr %5, align 8, !tbaa !22
  %23 = getelementptr inbounds nuw %struct.decNumber, ptr %22, i32 0, i32 0
  %24 = load i32, ptr %23, align 4, !tbaa !71
  %25 = icmp slt i32 %21, %24
  br i1 %25, label %27, label %26

26:                                               ; preds = %20
  call void @llvm.lifetime.end.p0(i64 4, ptr %6) #14
  br label %43

27:                                               ; preds = %20
  %28 = load ptr, ptr %5, align 8, !tbaa !22
  %29 = getelementptr inbounds nuw %struct.decNumber, ptr %28, i32 0, i32 3
  %30 = load i32, ptr %6, align 4, !tbaa !14
  %31 = sext i32 %30 to i64
  %32 = getelementptr inbounds [1 x i8], ptr %29, i64 0, i64 %31
  %33 = load i8, ptr %32, align 1, !tbaa !42
  %34 = getelementptr inbounds nuw %"class.icu_77::number::impl::DecimalQuantity", ptr %9, i32 0, i32 13
  %35 = getelementptr inbounds nuw %struct.anon, ptr %34, i32 0, i32 0
  %36 = load ptr, ptr %35, align 8, !tbaa !42
  %37 = load i32, ptr %6, align 4, !tbaa !14
  %38 = sext i32 %37 to i64
  %39 = getelementptr inbounds i8, ptr %36, i64 %38
  store i8 %33, ptr %39, align 1, !tbaa !42
  br label %40

40:                                               ; preds = %27
  %41 = load i32, ptr %6, align 4, !tbaa !14
  %42 = add nsw i32 %41, 1
  store i32 %42, ptr %6, align 4, !tbaa !14
  br label %20, !llvm.loop !73

43:                                               ; preds = %26
  br label %72

44:                                               ; preds = %2
  call void @llvm.lifetime.start.p0(i64 8, ptr %7) #14
  store i64 0, ptr %7, align 8, !tbaa !18
  call void @llvm.lifetime.start.p0(i64 4, ptr %8) #14
  store i32 0, ptr %8, align 4, !tbaa !14
  br label %45

45:                                               ; preds = %66, %44
  %46 = load i32, ptr %8, align 4, !tbaa !14
  %47 = load ptr, ptr %5, align 8, !tbaa !22
  %48 = getelementptr inbounds nuw %struct.decNumber, ptr %47, i32 0, i32 0
  %49 = load i32, ptr %48, align 4, !tbaa !71
  %50 = icmp slt i32 %46, %49
  br i1 %50, label %52, label %51

51:                                               ; preds = %45
  call void @llvm.lifetime.end.p0(i64 4, ptr %8) #14
  br label %69

52:                                               ; preds = %45
  %53 = load ptr, ptr %5, align 8, !tbaa !22
  %54 = getelementptr inbounds nuw %struct.decNumber, ptr %53, i32 0, i32 3
  %55 = load i32, ptr %8, align 4, !tbaa !14
  %56 = sext i32 %55 to i64
  %57 = getelementptr inbounds [1 x i8], ptr %54, i64 0, i64 %56
  %58 = load i8, ptr %57, align 1, !tbaa !42
  %59 = zext i8 %58 to i64
  %60 = load i32, ptr %8, align 4, !tbaa !14
  %61 = mul nsw i32 4, %60
  %62 = zext i32 %61 to i64
  %63 = shl i64 %59, %62
  %64 = load i64, ptr %7, align 8, !tbaa !18
  %65 = or i64 %64, %63
  store i64 %65, ptr %7, align 8, !tbaa !18
  br label %66

66:                                               ; preds = %52
  %67 = load i32, ptr %8, align 4, !tbaa !14
  %68 = add nsw i32 %67, 1
  store i32 %68, ptr %8, align 4, !tbaa !14
  br label %45, !llvm.loop !74

69:                                               ; preds = %51
  %70 = load i64, ptr %7, align 8, !tbaa !18
  %71 = getelementptr inbounds nuw %"class.icu_77::number::impl::DecimalQuantity", ptr %9, i32 0, i32 13
  store i64 %70, ptr %71, align 8, !tbaa !42
  call void @llvm.lifetime.end.p0(i64 8, ptr %7) #14
  br label %72

72:                                               ; preds = %69, %43
  %73 = load ptr, ptr %5, align 8, !tbaa !22
  %74 = getelementptr inbounds nuw %struct.decNumber, ptr %73, i32 0, i32 1
  %75 = load i32, ptr %74, align 4, !tbaa !75
  %76 = getelementptr inbounds nuw %"class.icu_77::number::impl::DecimalQuantity", ptr %9, i32 0, i32 3
  store i32 %75, ptr %76, align 4, !tbaa !43
  %77 = load ptr, ptr %5, align 8, !tbaa !22
  %78 = getelementptr inbounds nuw %struct.decNumber, ptr %77, i32 0, i32 0
  %79 = load i32, ptr %78, align 4, !tbaa !71
  %80 = getelementptr inbounds nuw %"class.icu_77::number::impl::DecimalQuantity", ptr %9, i32 0, i32 4
  store i32 %79, ptr %80, align 8, !tbaa !44
  call void @llvm.lifetime.end.p0(i64 8, ptr %5) #14
  ret void
}