; Function Attrs: mustprogress uwtable
define void @_ZN6icu_776number4impl15DecimalQuantity18readDecNumberToBcdERKNS1_6DecNumE(ptr noundef nonnull align 8 captures(none) dereferenceable(66) %0, ptr noundef nonnull readonly align 8 captures(none) dereferenceable(92) %1) local_unnamed_addr #1 align 2 {
  %3 = load ptr, ptr %1, align 8, !tbaa !49
  %4 = load i32, ptr %3, align 4, !tbaa !66
  %5 = icmp sgt i32 %4, 16
  br i1 %5, label %8, label %.preheader

.preheader:                                       ; preds = %2
  %6 = icmp sgt i32 %4, 0
  br i1 %6, label %.lr.ph, label %._crit_edge

.lr.ph:                                           ; preds = %.preheader
  %7 = getelementptr inbounds nuw i8, ptr %3, i64 9
  %wide.trip.count = zext nneg i32 %4 to i64
  br label %43

8:                                                ; preds = %2
  %9 = getelementptr inbounds nuw i8, ptr %0, i64 64
  %10 = load i8, ptr %9, align 8, !tbaa !22, !range !24, !noundef !25
  %11 = trunc nuw i8 %10 to i1
  %12 = getelementptr inbounds nuw i8, ptr %0, i64 56
  %13 = load i32, ptr %12, align 8
  br i1 %11, label %18, label %14

14:                                               ; preds = %8
  %15 = zext nneg i32 %4 to i64
  %16 = tail call noalias ptr @uprv_malloc_77(i64 noundef %15) #27
  %17 = getelementptr inbounds nuw i8, ptr %0, i64 48
  store ptr %16, ptr %17, align 8, !tbaa !26
  store i32 %4, ptr %12, align 8, !tbaa !26
  tail call void @llvm.memset.p0.i64(ptr align 1 %16, i8 0, i64 %15, i1 false)
  br label %_ZN6icu_776number4impl15DecimalQuantity14ensureCapacityEi.exit

18:                                               ; preds = %8
  %19 = icmp slt i32 %13, %4
  br i1 %19, label %20, label %_ZN6icu_776number4impl15DecimalQuantity14ensureCapacityEi.exit

20:                                               ; preds = %18
  %21 = shl nuw nsw i32 %4, 1
  %22 = zext nneg i32 %21 to i64
  %23 = tail call noalias ptr @uprv_malloc_77(i64 noundef %22) #27
  %24 = getelementptr inbounds nuw i8, ptr %0, i64 48
  %25 = load ptr, ptr %24, align 8, !tbaa !26
  %26 = sext i32 %13 to i64
  tail call void @llvm.memcpy.p0.p0.i64(ptr align 1 %23, ptr align 1 %25, i64 %26, i1 false)
  %27 = getelementptr inbounds i8, ptr %23, i64 %26
  %28 = sub nsw i32 %4, %13
  %29 = sext i32 %28 to i64
  tail call void @llvm.memset.p0.i64(ptr align 1 %27, i8 0, i64 %29, i1 false)
  tail call void @uprv_free_77(ptr noundef %25)
  store ptr %23, ptr %24, align 8, !tbaa !26
  store i32 %21, ptr %12, align 8, !tbaa !26
  br label %_ZN6icu_776number4impl15DecimalQuantity14ensureCapacityEi.exit

_ZN6icu_776number4impl15DecimalQuantity14ensureCapacityEi.exit: ; preds = %14, %18, %20
  store i8 1, ptr %9, align 8, !tbaa !22
  %30 = load i32, ptr %3, align 4, !tbaa !66
  %31 = icmp sgt i32 %30, 0
  br i1 %31, label %.lr.ph25, label %.loopexit

.lr.ph25:                                         ; preds = %_ZN6icu_776number4impl15DecimalQuantity14ensureCapacityEi.exit
  %32 = getelementptr inbounds nuw i8, ptr %3, i64 9
  %33 = getelementptr inbounds nuw i8, ptr %0, i64 48
  br label %34

34:                                               ; preds = %.lr.ph25, %34
  %indvars.iv27 = phi i64 [ 0, %.lr.ph25 ], [ %indvars.iv.next28, %34 ]
  %35 = getelementptr inbounds nuw [1 x i8], ptr %32, i64 0, i64 %indvars.iv27
  %36 = load i8, ptr %35, align 1, !tbaa !26
  %37 = load ptr, ptr %33, align 8, !tbaa !26
  %38 = getelementptr inbounds nuw i8, ptr %37, i64 %indvars.iv27
  store i8 %36, ptr %38, align 1, !tbaa !26
  %indvars.iv.next28 = add nuw nsw i64 %indvars.iv27, 1
  %39 = load i32, ptr %3, align 4, !tbaa !66
  %40 = sext i32 %39 to i64
  %41 = icmp slt i64 %indvars.iv.next28, %40
  br i1 %41, label %34, label %.loopexit, !llvm.loop !67

._crit_edge:                                      ; preds = %43, %.preheader
  %.019.lcssa = phi i64 [ 0, %.preheader ], [ %49, %43 ]
  %42 = getelementptr inbounds nuw i8, ptr %0, i64 48
  store i64 %.019.lcssa, ptr %42, align 8, !tbaa !26
  %.pre = load i32, ptr %3, align 4, !tbaa !66
  br label %.loopexit

43:                                               ; preds = %.lr.ph, %43
  %indvars.iv = phi i64 [ 0, %.lr.ph ], [ %indvars.iv.next, %43 ]
  %.01922 = phi i64 [ 0, %.lr.ph ], [ %49, %43 ]
  %44 = getelementptr inbounds nuw [1 x i8], ptr %7, i64 0, i64 %indvars.iv
  %45 = load i8, ptr %44, align 1, !tbaa !26
  %46 = zext i8 %45 to i64
  %47 = shl nsw i64 %indvars.iv, 2
  %48 = shl i64 %46, %47
  %49 = or i64 %48, %.01922
  %indvars.iv.next = add nuw nsw i64 %indvars.iv, 1
  %exitcond.not = icmp eq i64 %indvars.iv.next, %wide.trip.count
  br i1 %exitcond.not, label %._crit_edge, label %43, !llvm.loop !68

.loopexit:                                        ; preds = %34, %_ZN6icu_776number4impl15DecimalQuantity14ensureCapacityEi.exit, %._crit_edge
  %50 = phi i32 [ %30, %_ZN6icu_776number4impl15DecimalQuantity14ensureCapacityEi.exit ], [ %.pre, %._crit_edge ], [ %39, %34 ]
  %51 = getelementptr inbounds nuw i8, ptr %3, i64 4
  %52 = load i32, ptr %51, align 4, !tbaa !69
  %53 = getelementptr inbounds nuw i8, ptr %0, i64 12
  store i32 %52, ptr %53, align 4, !tbaa !27
  %54 = getelementptr inbounds nuw i8, ptr %0, i64 16
  store i32 %50, ptr %54, align 8, !tbaa !28
  ret void
}